target datalayout = "e-m:e-p270:32:32-p271:32:32-p272:64:64-i64:64-i128:128-f80:128-n8:16:32:64-S128"
target triple = "x86_64-pc-linux-gnu"

%struct.ParseState = type { ptr, ptr, i32, i32, ptr, ptr, ptr, ptr, ptr, ptr, i8, ptr, ptr, ptr, ptr, ptr, ptr, i8, ptr, i32, i32, ptr, ptr, i8, i8, ptr, i8, i8, i8, i8, i8, ptr, ptr, ptr, ptr, ptr, ptr }
%struct.ForEachState = type { ptr, i32 }
%struct.List = type { i32, i32, i32, ptr, [0 x %union.ListCell] }
%union.ListCell = type { ptr }
%struct.RangeVar = type { i32, ptr, ptr, ptr, i8, i8, ptr, i32 }
%struct.LockingClause = type { i32, ptr, i32, i32 }

; Function Attrs: nounwind uwtable
define dso_local zeroext i1 @isLockedRefname(ptr noundef %0, ptr noundef %1) #0 {
  %3 = alloca i1, align 1
  %4 = alloca ptr, align 8
  %5 = alloca ptr, align 8
  %6 = alloca ptr, align 8
  %7 = alloca i32, align 4
  %8 = alloca %struct.ForEachState, align 8
  %9 = alloca ptr, align 8
  %10 = alloca ptr, align 8
  %11 = alloca %struct.ForEachState, align 8
  %12 = alloca ptr, align 8
  store ptr %0, ptr %4, align 8
  store ptr %1, ptr %5, align 8
  call void @llvm.lifetime.start.p0(i64 8, ptr %6) #8
  %13 = load ptr, ptr %4, align 8
  %14 = getelementptr inbounds nuw %struct.ParseState, ptr %13, i32 0, i32 23
  %15 = load i8, ptr %14, align 8, !range !6, !noundef !7
  %16 = trunc i8 %15 to i1
  br i1 %16, label %17, label %18

17:                                               ; preds = %2
  store i1 true, ptr %3, align 1
  store i32 1, ptr %7, align 4
  br label %131

18:                                               ; preds = %2
  call void @llvm.lifetime.start.p0(i64 16, ptr %8) #8
  %19 = getelementptr inbounds nuw %struct.ForEachState, ptr %8, i32 0, i32 0
  %20 = load ptr, ptr %4, align 8
  %21 = getelementptr inbounds nuw %struct.ParseState, ptr %20, i32 0, i32 22
  %22 = load ptr, ptr %21, align 8
  store ptr %22, ptr %19, align 8
  %23 = getelementptr inbounds nuw %struct.ForEachState, ptr %8, i32 0, i32 1
  store i32 0, ptr %23, align 8
  %24 = getelementptr i8, ptr %8, i64 12
  call void @llvm.memset.p0.i64(ptr align 4 %24, i8 0, i64 4, i1 false)
  br label %25

25:                                               ; preds = %124, %18
  %26 = getelementptr inbounds nuw %struct.ForEachState, ptr %8, i32 0, i32 0
  %27 = load ptr, ptr %26, align 8
  %28 = icmp ne ptr %27, null
  br i1 %28, label %29, label %46

29:                                               ; preds = %25
  %30 = getelementptr inbounds nuw %struct.ForEachState, ptr %8, i32 0, i32 1
  %31 = load i32, ptr %30, align 8
  %32 = getelementptr inbounds nuw %struct.ForEachState, ptr %8, i32 0, i32 0
  %33 = load ptr, ptr %32, align 8
  %34 = getelementptr inbounds nuw %struct.List, ptr %33, i32 0, i32 1
  %35 = load i32, ptr %34, align 4
  %36 = icmp slt i32 %31, %35
  br i1 %36, label %37, label %46

37:                                               ; preds = %29
  %38 = getelementptr inbounds nuw %struct.ForEachState, ptr %8, i32 0, i32 0
  %39 = load ptr, ptr %38, align 8
  %40 = getelementptr inbounds nuw %struct.List, ptr %39, i32 0, i32 3
  %41 = load ptr, ptr %40, align 8
  %42 = getelementptr inbounds nuw %struct.ForEachState, ptr %8, i32 0, i32 1
  %43 = load i32, ptr %42, align 8
  %44 = sext i32 %43 to i64
  %45 = getelementptr inbounds %union.ListCell, ptr %41, i64 %44
  store ptr %45, ptr %6, align 8
  br label %47

46:                                               ; preds = %29, %25
  store ptr null, ptr %6, align 8
  br label %47

47:                                               ; preds = %46, %37
  %48 = phi i32 [ 1, %37 ], [ 0, %46 ]
  %49 = icmp ne i32 %48, 0
  br i1 %49, label %51, label %50

50:                                               ; preds = %47
  store i32 2, ptr %7, align 4
  br label %128

51:                                               ; preds = %47
  call void @llvm.lifetime.start.p0(i64 8, ptr %9) #8
  %52 = load ptr, ptr %6, align 8
  %53 = load ptr, ptr %52, align 8
  store ptr %53, ptr %9, align 8
  %54 = load ptr, ptr %9, align 8
  %55 = getelementptr inbounds nuw %struct.LockingClause, ptr %54, i32 0, i32 1
  %56 = load ptr, ptr %55, align 8
  %57 = icmp eq ptr %56, null
  br i1 %57, label %58, label %59

58:                                               ; preds = %51
  store i1 true, ptr %3, align 1
  store i32 1, ptr %7, align 4
  br label %121

59:                                               ; preds = %51
  %60 = load ptr, ptr %5, align 8
  %61 = icmp ne ptr %60, null
  br i1 %61, label %62, label %119

62:                                               ; preds = %59
  call void @llvm.lifetime.start.p0(i64 8, ptr %10) #8
  call void @llvm.lifetime.start.p0(i64 16, ptr %11) #8
  %63 = getelementptr inbounds nuw %struct.ForEachState, ptr %11, i32 0, i32 0
  %64 = load ptr, ptr %9, align 8
  %65 = getelementptr inbounds nuw %struct.LockingClause, ptr %64, i32 0, i32 1
  %66 = load ptr, ptr %65, align 8
  store ptr %66, ptr %63, align 8
  %67 = getelementptr inbounds nuw %struct.ForEachState, ptr %11, i32 0, i32 1
  store i32 0, ptr %67, align 8
  %68 = getelementptr i8, ptr %11, i64 12
  call void @llvm.memset.p0.i64(ptr align 4 %68, i8 0, i64 4, i1 false)
  br label %69

69:                                               ; preds = %109, %62
  %70 = getelementptr inbounds nuw %struct.ForEachState, ptr %11, i32 0, i32 0
  %71 = load ptr, ptr %70, align 8
  %72 = icmp ne ptr %71, null
  br i1 %72, label %73, label %90

73:                                               ; preds = %69
  %74 = getelementptr inbounds nuw %struct.ForEachState, ptr %11, i32 0, i32 1
  %75 = load i32, ptr %74, align 8
  %76 = getelementptr inbounds nuw %struct.ForEachState, ptr %11, i32 0, i32 0
  %77 = load ptr, ptr %76, align 8
  %78 = getelementptr inbounds nuw %struct.List, ptr %77, i32 0, i32 1
  %79 = load i32, ptr %78, align 4
  %80 = icmp slt i32 %75, %79
  br i1 %80, label %81, label %90

81:                                               ; preds = %73
  %82 = getelementptr inbounds nuw %struct.ForEachState, ptr %11, i32 0, i32 0
  %83 = load ptr, ptr %82, align 8
  %84 = getelementptr inbounds nuw %struct.List, ptr %83, i32 0, i32 3
  %85 = load ptr, ptr %84, align 8
  %86 = getelementptr inbounds nuw %struct.ForEachState, ptr %11, i32 0, i32 1
  %87 = load i32, ptr %86, align 8
  %88 = sext i32 %87 to i64
  %89 = getelementptr inbounds %union.ListCell, ptr %85, i64 %88
  store ptr %89, ptr %10, align 8
  br label %91

90:                                               ; preds = %73, %69
  store ptr null, ptr %10, align 8
  br label %91

91:                                               ; preds = %90, %81
  %92 = phi i32 [ 1, %81 ], [ 0, %90 ]
  %93 = icmp ne i32 %92, 0
  br i1 %93, label %95, label %94

94:                                               ; preds = %91
  store i32 5, ptr %7, align 4
  br label %113

95:                                               ; preds = %91
  call void @llvm.lifetime.start.p0(i64 8, ptr %12) #8
  %96 = load ptr, ptr %10, align 8
  %97 = load ptr, ptr %96, align 8
  store ptr %97, ptr %12, align 8
  %98 = load ptr, ptr %5, align 8
  %99 = load ptr, ptr %12, align 8
  %100 = getelementptr inbounds nuw %struct.RangeVar, ptr %99, i32 0, i32 3
  %101 = load ptr, ptr %100, align 8
  %102 = call i32 @strcmp(ptr noundef %98, ptr noundef %101) #10
  %103 = icmp eq i32 %102, 0
  br i1 %103, label %104, label %105

104:                                              ; preds = %95
  store i1 true, ptr %3, align 1
  store i32 1, ptr %7, align 4
  br label %106

105:                                              ; preds = %95
  store i32 0, ptr %7, align 4
  br label %106

106:                                              ; preds = %105, %104
  call void @llvm.lifetime.end.p0(i64 8, ptr %12) #8
  %107 = load i32, ptr %7, align 4
  switch i32 %107, label %113 [
    i32 0, label %108
  ]

108:                                              ; preds = %106
  br label %109

109:                                              ; preds = %108
  %110 = getelementptr inbounds nuw %struct.ForEachState, ptr %11, i32 0, i32 1
  %111 = load i32, ptr %110, align 8
  %112 = add i32 %111, 1
  store i32 %112, ptr %110, align 8
  br label %69, !llvm.loop !26

113:                                              ; preds = %106, %94
  call void @llvm.lifetime.end.p0(i64 16, ptr %11) #8
  %114 = load i32, ptr %7, align 4
  switch i32 %114, label %116 [
    i32 5, label %115
  ]

115:                                              ; preds = %113
  store i32 0, ptr %7, align 4
  br label %116

116:                                              ; preds = %115, %113
  call void @llvm.lifetime.end.p0(i64 8, ptr %10) #8
  %117 = load i32, ptr %7, align 4
  switch i32 %117, label %121 [
    i32 0, label %118
  ]

118:                                              ; preds = %116
  br label %119

119:                                              ; preds = %118, %59
  br label %120

120:                                              ; preds = %119
  store i32 0, ptr %7, align 4
  br label %121

121:                                              ; preds = %120, %116, %58
  call void @llvm.lifetime.end.p0(i64 8, ptr %9) #8
  %122 = load i32, ptr %7, align 4
  switch i32 %122, label %128 [
    i32 0, label %123
  ]

123:                                              ; preds = %121
  br label %124

124:                                              ; preds = %123
  %125 = getelementptr inbounds nuw %struct.ForEachState, ptr %8, i32 0, i32 1
  %126 = load i32, ptr %125, align 8
  %127 = add i32 %126, 1
  store i32 %127, ptr %125, align 8
  br label %25, !llvm.loop !27

128:                                              ; preds = %121, %50
  call void @llvm.lifetime.end.p0(i64 16, ptr %8) #8
  %129 = load i32, ptr %7, align 4
  switch i32 %129, label %131 [
    i32 2, label %130
  ]

130:                                              ; preds = %128
  store i1 false, ptr %3, align 1
  store i32 1, ptr %7, align 4
  br label %131

131:                                              ; preds = %130, %128, %17
  call void @llvm.lifetime.end.p0(i64 8, ptr %6) #8
  %132 = load i1, ptr %3, align 1
  ret i1 %132
}