; Function Attrs: nofree nounwind memory(read, inaccessiblemem: none) uwtable
define dso_local noundef zeroext i1 @isLockedRefname(ptr noundef readonly captures(none) %0, ptr noundef readonly captures(address_is_null) %1) local_unnamed_addr #7 {
  %3 = getelementptr inbounds nuw i8, ptr %0, i64 168
  %4 = load i8, ptr %3, align 8, !range !4, !noundef !5
  %5 = trunc nuw i8 %4 to i1
  br i1 %5, label %.thread56, label %6

6:                                                ; preds = %2
  %7 = getelementptr inbounds nuw i8, ptr %0, i64 160
  %8 = load ptr, ptr %7, align 8
  %.not = icmp eq ptr %8, null
  br i1 %.not, label %.thread56, label %.lr.ph62

.lr.ph62:                                         ; preds = %6
  %9 = getelementptr inbounds nuw i8, ptr %8, i64 4
  %10 = load i32, ptr %9, align 4
  %11 = getelementptr inbounds nuw i8, ptr %8, i64 16
  %.not39 = icmp eq ptr %1, null
  %12 = icmp sgt i32 %10, 0
  br i1 %.not39, label %.lr.ph62.split.us.split, label %.lr.ph62.split.split

.lr.ph62.split.us.split:                          ; preds = %.lr.ph62
  br i1 %12, label %.lr.ph83, label %.thread56

.lr.ph83:                                         ; preds = %.lr.ph62.split.us.split
  %13 = load ptr, ptr %11, align 8
  br label %14

14:                                               ; preds = %14, %.lr.ph83
  %.sroa.615.061.us82 = phi i32 [ 0, %.lr.ph83 ], [ %21, %14 ]
  %15 = zext nneg i32 %.sroa.615.061.us82 to i64
  %16 = getelementptr inbounds nuw %union.ListCell, ptr %13, i64 %15
  %17 = load ptr, ptr %16, align 8
  %18 = getelementptr inbounds nuw i8, ptr %17, i64 8
  %19 = load ptr, ptr %18, align 8
  %20 = icmp eq ptr %19, null
  %21 = add nuw nsw i32 %.sroa.615.061.us82, 1
  %exitcond91.not = icmp eq i32 %21, %10
  %or.cond = select i1 %20, i1 true, i1 %exitcond91.not
  br i1 %or.cond, label %.thread56, label %14

.lr.ph62.split.split:                             ; preds = %.lr.ph62
  br i1 %12, label %.lr.ph77, label %.thread56

.lr.ph77:                                         ; preds = %.lr.ph62.split.split
  %22 = load ptr, ptr %11, align 8
  br label %23

23:                                               ; preds = %.lr.ph77, %.loopexit
  %.sroa.615.06176 = phi i32 [ 0, %.lr.ph77 ], [ %41, %.loopexit ]
  %24 = zext nneg i32 %.sroa.615.06176 to i64
  %25 = getelementptr inbounds nuw %union.ListCell, ptr %22, i64 %24
  %26 = load ptr, ptr %25, align 8
  %27 = getelementptr inbounds nuw i8, ptr %26, i64 8
  %28 = load ptr, ptr %27, align 8
  %29 = icmp eq ptr %28, null
  br i1 %29, label %.thread56, label %.preheader

.preheader:                                       ; preds = %23
  %30 = getelementptr inbounds nuw i8, ptr %28, i64 4
  %31 = load i32, ptr %30, align 4
  %.not41.not59 = icmp sgt i32 %31, 0
  br i1 %.not41.not59, label %.lr.ph, label %.loopexit

.lr.ph:                                           ; preds = %.preheader
  %32 = getelementptr inbounds nuw i8, ptr %28, i64 16
  %33 = load ptr, ptr %32, align 8
  %wide.trip.count = zext nneg i32 %31 to i64
  br label %35

34:                                               ; preds = %35
  %indvars.iv.next = add nuw nsw i64 %indvars.iv, 1
  %exitcond.not = icmp eq i64 %indvars.iv.next, %wide.trip.count
  br i1 %exitcond.not, label %.loopexit, label %35, !llvm.loop !15

35:                                               ; preds = %.lr.ph, %34
  %indvars.iv = phi i64 [ 0, %.lr.ph ], [ %indvars.iv.next, %34 ]
  %36 = getelementptr inbounds nuw %union.ListCell, ptr %33, i64 %indvars.iv
  %37 = load ptr, ptr %36, align 8
  %38 = getelementptr inbounds nuw i8, ptr %37, i64 24
  %39 = load ptr, ptr %38, align 8
  %40 = tail call i32 @strcmp(ptr noundef nonnull dereferenceable(1) %1, ptr noundef nonnull dereferenceable(1) %39) #12
  %.not42 = icmp eq i32 %40, 0
  br i1 %.not42, label %.thread56, label %34

.loopexit:                                        ; preds = %34, %.preheader
  %41 = add nuw nsw i32 %.sroa.615.06176, 1
  %exitcond90.not = icmp eq i32 %41, %10
  br i1 %exitcond90.not, label %.thread56, label %23

.thread56:                                        ; preds = %.loopexit, %23, %35, %14, %6, %.lr.ph62.split.split, %.lr.ph62.split.us.split, %2
  %.0 = phi i1 [ true, %2 ], [ false, %6 ], [ false, %.lr.ph62.split.us.split ], [ false, %.lr.ph62.split.split ], [ %20, %14 ], [ true, %35 ], [ %29, %23 ], [ %29, %.loopexit ]
  ret i1 %.0
}